target datalayout = "e-m:e-p270:32:32-p271:32:32-p272:64:64-i64:64-i128:128-f80:128-n8:16:32:64-S128"
target triple = "x86_64-pc-linux-gnu"

%struct.H5LD_memb_t = type { i64, i64, i64, ptr }
%union.anon.1 = type { ptr }

; Function Attrs: nounwind uwtable
define void @H5LD_clean_vector(ptr noundef %0) #0 {
  %2 = alloca ptr, align 8
  %3 = alloca i32, align 4
  store ptr %0, ptr %2, align 8, !tbaa !3
  call void @llvm.lifetime.start.p0(i64 4, ptr %3) #8
  store i32 0, ptr %3, align 4, !tbaa !8
  br label %4

4:                                                ; preds = %68, %1
  %5 = load ptr, ptr %2, align 8, !tbaa !3
  %6 = load i32, ptr %3, align 4, !tbaa !8
  %7 = zext i32 %6 to i64
  %8 = getelementptr inbounds nuw ptr, ptr %5, i64 %7
  %9 = load ptr, ptr %8, align 8, !tbaa !10
  %10 = icmp ne ptr %9, null
  br i1 %10, label %11, label %71

11:                                               ; preds = %4
  %12 = load ptr, ptr %2, align 8, !tbaa !3
  %13 = load i32, ptr %3, align 4, !tbaa !8
  %14 = zext i32 %13 to i64
  %15 = getelementptr inbounds nuw ptr, ptr %12, i64 %14
  %16 = load ptr, ptr %15, align 8, !tbaa !10
  %17 = getelementptr inbounds nuw %struct.H5LD_memb_t, ptr %16, i32 0, i32 3
  %18 = load ptr, ptr %17, align 8, !tbaa !12
  %19 = icmp ne ptr %18, null
  br i1 %19, label %20, label %34

20:                                               ; preds = %11
  %21 = load ptr, ptr %2, align 8, !tbaa !3
  %22 = load i32, ptr %3, align 4, !tbaa !8
  %23 = zext i32 %22 to i64
  %24 = getelementptr inbounds nuw ptr, ptr %21, i64 %23
  %25 = load ptr, ptr %24, align 8, !tbaa !10
  %26 = getelementptr inbounds nuw %struct.H5LD_memb_t, ptr %25, i32 0, i32 3
  %27 = load ptr, ptr %26, align 8, !tbaa !12
  call void @free(ptr noundef %27) #8
  %28 = load ptr, ptr %2, align 8, !tbaa !3
  %29 = load i32, ptr %3, align 4, !tbaa !8
  %30 = zext i32 %29 to i64
  %31 = getelementptr inbounds nuw ptr, ptr %28, i64 %30
  %32 = load ptr, ptr %31, align 8, !tbaa !10
  %33 = getelementptr inbounds nuw %struct.H5LD_memb_t, ptr %32, i32 0, i32 3
  store ptr null, ptr %33, align 8, !tbaa !12
  br label %34

34:                                               ; preds = %20, %11
  %35 = load ptr, ptr %2, align 8, !tbaa !3
  %36 = load i32, ptr %3, align 4, !tbaa !8
  %37 = zext i32 %36 to i64
  %38 = getelementptr inbounds nuw ptr, ptr %35, i64 %37
  %39 = load ptr, ptr %38, align 8, !tbaa !10
  %40 = getelementptr inbounds nuw %struct.H5LD_memb_t, ptr %39, i32 0, i32 2
  %41 = load i64, ptr %40, align 8, !tbaa !16
  %42 = icmp slt i64 %41, 0
  br i1 %42, label %58, label %43

43:                                               ; preds = %34
  %44 = load ptr, ptr %2, align 8, !tbaa !3
  %45 = load i32, ptr %3, align 4, !tbaa !8
  %46 = zext i32 %45 to i64
  %47 = getelementptr inbounds nuw ptr, ptr %44, i64 %46
  %48 = load ptr, ptr %47, align 8, !tbaa !10
  %49 = getelementptr inbounds nuw %struct.H5LD_memb_t, ptr %48, i32 0, i32 2
  %50 = load i64, ptr %49, align 8, !tbaa !16
  %51 = call i32 @H5Tclose(i64 noundef %50)
  %52 = load ptr, ptr %2, align 8, !tbaa !3
  %53 = load i32, ptr %3, align 4, !tbaa !8
  %54 = zext i32 %53 to i64
  %55 = getelementptr inbounds nuw ptr, ptr %52, i64 %54
  %56 = load ptr, ptr %55, align 8, !tbaa !10
  %57 = getelementptr inbounds nuw %struct.H5LD_memb_t, ptr %56, i32 0, i32 2
  store i64 -1, ptr %57, align 8, !tbaa !16
  br label %58

58:                                               ; preds = %43, %34
  %59 = load ptr, ptr %2, align 8, !tbaa !3
  %60 = load i32, ptr %3, align 4, !tbaa !8
  %61 = zext i32 %60 to i64
  %62 = getelementptr inbounds nuw ptr, ptr %59, i64 %61
  %63 = load ptr, ptr %62, align 8, !tbaa !10
  call void @free(ptr noundef %63) #8
  %64 = load ptr, ptr %2, align 8, !tbaa !3
  %65 = load i32, ptr %3, align 4, !tbaa !8
  %66 = zext i32 %65 to i64
  %67 = getelementptr inbounds nuw ptr, ptr %64, i64 %66
  store ptr null, ptr %67, align 8, !tbaa !10
  br label %68

68:                                               ; preds = %58
  %69 = load i32, ptr %3, align 4, !tbaa !8
  %70 = add i32 %69, 1
  store i32 %70, ptr %3, align 4, !tbaa !8
  br label %4, !llvm.loop !17

71:                                               ; preds = %4
  call void @llvm.lifetime.end.p0(i64 4, ptr %3) #8
  ret void
}

; Function Attrs: nounwind uwtable
define internal i64 @H5LD_get_dset_type_size(i64 noundef %0, ptr noundef %1) #0 {
  %3 = alloca i64, align 8
  %4 = alloca i64, align 8
  %5 = alloca ptr, align 8
  %6 = alloca i64, align 8
  %7 = alloca i64, align 8
  %8 = alloca ptr, align 8
  %9 = alloca ptr, align 8
  %10 = alloca i64, align 8
  %11 = alloca i64, align 8
  %12 = alloca i64, align 8
  %13 = alloca i32, align 4
  %14 = alloca i32, align 4
  %15 = alloca i32, align 4
  %16 = alloca i32, align 4
  %17 = alloca %union.anon.1, align 8
  %18 = alloca ptr, align 8
  store i64 %0, ptr %4, align 8, !tbaa !21
  store ptr %1, ptr %5, align 8, !tbaa !19
  call void @llvm.lifetime.start.p0(i64 8, ptr %6) #8
  store i64 -1, ptr %6, align 8, !tbaa !21
  call void @llvm.lifetime.start.p0(i64 8, ptr %7) #8
  store i64 -1, ptr %7, align 8, !tbaa !21
  call void @llvm.lifetime.start.p0(i64 8, ptr %8) #8
  store ptr null, ptr %8, align 8, !tbaa !3
  call void @llvm.lifetime.start.p0(i64 8, ptr %9) #8
  store ptr null, ptr %9, align 8, !tbaa !19
  call void @llvm.lifetime.start.p0(i64 8, ptr %10) #8
  store i64 0, ptr %10, align 8, !tbaa !21
  %19 = load i64, ptr %4, align 8, !tbaa !21
  %20 = call i64 @H5Dget_type(i64 noundef %19)
  store i64 %20, ptr %6, align 8, !tbaa !21
  %21 = icmp slt i64 %20, 0
  br i1 %21, label %22, label %23

22:                                               ; preds = %2
  br label %85

23:                                               ; preds = %2
  %24 = load i64, ptr %6, align 8, !tbaa !21
  %25 = call i64 @H5Tget_native_type(i64 noundef %24, i32 noundef 0)
  store i64 %25, ptr %7, align 8, !tbaa !21
  %26 = icmp slt i64 %25, 0
  br i1 %26, label %27, label %28

27:                                               ; preds = %23
  br label %85

28:                                               ; preds = %23
  %29 = load ptr, ptr %5, align 8, !tbaa !19
  %30 = icmp eq ptr %29, null
  br i1 %30, label %31, label %34

31:                                               ; preds = %28
  %32 = load i64, ptr %7, align 8, !tbaa !21
  %33 = call i64 @H5Tget_size(i64 noundef %32)
  store i64 %33, ptr %10, align 8, !tbaa !21
  br label %84

34:                                               ; preds = %28
  call void @llvm.lifetime.start.p0(i64 8, ptr %11) #8
  call void @llvm.lifetime.start.p0(i64 8, ptr %12) #8
  store i64 0, ptr %12, align 8, !tbaa !21
  call void @llvm.lifetime.start.p0(i64 4, ptr %13) #8
  store i32 0, ptr %13, align 4, !tbaa !8
  call void @llvm.lifetime.start.p0(i64 4, ptr %14) #8
  store i32 0, ptr %14, align 4, !tbaa !8
  %35 = load i64, ptr %6, align 8, !tbaa !21
  %36 = call i32 @H5Tget_class(i64 noundef %35)
  %37 = icmp ne i32 %36, 6
  br i1 %37, label %38, label %39

38:                                               ; preds = %34
  store i32 2, ptr %15, align 4
  br label %81

39:                                               ; preds = %34
  %40 = load ptr, ptr %5, align 8, !tbaa !19
  %41 = call noalias ptr @strdup(ptr noundef %40) #8
  store ptr %41, ptr %9, align 8, !tbaa !19
  %42 = icmp eq ptr null, %41
  br i1 %42, label %43, label %44

43:                                               ; preds = %39
  store i32 2, ptr %15, align 4
  br label %81

44:                                               ; preds = %39
  %45 = load ptr, ptr %5, align 8, !tbaa !19
  %46 = call i64 @strlen(ptr noundef %45) #9
  %47 = udiv i64 %46, 2
  %48 = add i64 %47, 2
  store i64 %48, ptr %11, align 8, !tbaa !21
  %49 = load i64, ptr %11, align 8, !tbaa !21
  %50 = call noalias ptr @calloc(i64 noundef %49, i64 noundef 8) #10
  store ptr %50, ptr %8, align 8, !tbaa !3
  %51 = icmp eq ptr null, %50
  br i1 %51, label %52, label %53

52:                                               ; preds = %44
  store i32 2, ptr %15, align 4
  br label %81

53:                                               ; preds = %44
  %54 = load ptr, ptr %9, align 8, !tbaa !19
  %55 = load ptr, ptr %8, align 8, !tbaa !3
  %56 = load i64, ptr %7, align 8, !tbaa !21
  %57 = call i32 @H5LD_construct_vector(ptr noundef %54, ptr noundef %55, i64 noundef %56)
  store i32 %57, ptr %14, align 4, !tbaa !8
  %58 = icmp slt i32 %57, 0
  br i1 %58, label %59, label %60

59:                                               ; preds = %53
  store i32 2, ptr %15, align 4
  br label %81

60:                                               ; preds = %53
  store i32 0, ptr %13, align 4, !tbaa !8
  br label %61

61:                                               ; preds = %75, %60
  %62 = load i32, ptr %13, align 4, !tbaa !8
  %63 = load i32, ptr %14, align 4, !tbaa !8
  %64 = icmp slt i32 %62, %63
  br i1 %64, label %65, label %78

65:                                               ; preds = %61
  %66 = load ptr, ptr %8, align 8, !tbaa !3
  %67 = load i32, ptr %13, align 4, !tbaa !8
  %68 = sext i32 %67 to i64
  %69 = getelementptr inbounds ptr, ptr %66, i64 %68
  %70 = load ptr, ptr %69, align 8, !tbaa !10
  %71 = getelementptr inbounds nuw %struct.H5LD_memb_t, ptr %70, i32 0, i32 1
  %72 = load i64, ptr %71, align 8, !tbaa !31
  %73 = load i64, ptr %12, align 8, !tbaa !21
  %74 = add i64 %73, %72
  store i64 %74, ptr %12, align 8, !tbaa !21
  br label %75

75:                                               ; preds = %65
  %76 = load i32, ptr %13, align 4, !tbaa !8
  %77 = add nsw i32 %76, 1
  store i32 %77, ptr %13, align 4, !tbaa !8
  br label %61, !llvm.loop !35

78:                                               ; preds = %61
  %79 = load ptr, ptr %8, align 8, !tbaa !3
  call void @H5LD_clean_vector(ptr noundef %79)
  %80 = load i64, ptr %12, align 8, !tbaa !21
  store i64 %80, ptr %10, align 8, !tbaa !21
  store i32 0, ptr %15, align 4
  br label %81

81:                                               ; preds = %59, %52, %43, %38, %78
  call void @llvm.lifetime.end.p0(i64 4, ptr %14) #8
  call void @llvm.lifetime.end.p0(i64 4, ptr %13) #8
  call void @llvm.lifetime.end.p0(i64 8, ptr %12) #8
  call void @llvm.lifetime.end.p0(i64 8, ptr %11) #8
  %82 = load i32, ptr %15, align 4
  switch i32 %82, label %122 [
    i32 0, label %83
    i32 2, label %85
  ]

83:                                               ; preds = %81
  br label %84

84:                                               ; preds = %83, %31
  br label %85

85:                                               ; preds = %84, %81, %27, %22
  call void @llvm.lifetime.start.p0(i64 4, ptr %16) #8
  call void @llvm.lifetime.start.p0(i64 8, ptr %17) #8
  call void @llvm.lifetime.start.p0(i64 8, ptr %18) #8
  %86 = call i32 @H5Eauto_is_v2(i64 noundef 0, ptr noundef %16)
  %87 = load i32, ptr %16, align 4, !tbaa !8
  %88 = icmp ne i32 %87, 0
  br i1 %88, label %89, label %92

89:                                               ; preds = %85
  %90 = call i32 @H5Eget_auto2(i64 noundef 0, ptr noundef %17, ptr noundef %18)
  %91 = call i32 @H5Eset_auto2(i64 noundef 0, ptr noundef null, ptr noundef null)
  br label %95

92:                                               ; preds = %85
  %93 = call i32 @H5Eget_auto1(ptr noundef %17, ptr noundef %18)
  %94 = call i32 @H5Eset_auto1(ptr noundef null, ptr noundef null)
  br label %95

95:                                               ; preds = %92, %89
  %96 = load i64, ptr %7, align 8, !tbaa !21
  %97 = call i32 @H5Tclose(i64 noundef %96)
  %98 = load i64, ptr %6, align 8, !tbaa !21
  %99 = call i32 @H5Tclose(i64 noundef %98)
  %100 = load i32, ptr %16, align 4, !tbaa !8
  %101 = icmp ne i32 %100, 0
  br i1 %101, label %102, label %106

102:                                              ; preds = %95
  %103 = load ptr, ptr %17, align 8, !tbaa !26
  %104 = load ptr, ptr %18, align 8, !tbaa !32
  %105 = call i32 @H5Eset_auto2(i64 noundef 0, ptr noundef %103, ptr noundef %104)
  br label %110

106:                                              ; preds = %95
  %107 = load ptr, ptr %17, align 8, !tbaa !26
  %108 = load ptr, ptr %18, align 8, !tbaa !32
  %109 = call i32 @H5Eset_auto1(ptr noundef %107, ptr noundef %108)
  br label %110

110:                                              ; preds = %106, %102
  call void @llvm.lifetime.end.p0(i64 8, ptr %18) #8
  call void @llvm.lifetime.end.p0(i64 8, ptr %17) #8
  call void @llvm.lifetime.end.p0(i64 4, ptr %16) #8
  %111 = load ptr, ptr %8, align 8, !tbaa !3
  %112 = icmp ne ptr %111, null
  br i1 %112, label %113, label %115

113:                                              ; preds = %110
  %114 = load ptr, ptr %8, align 8, !tbaa !3
  call void @free(ptr noundef %114) #8
  br label %115

115:                                              ; preds = %113, %110
  %116 = load ptr, ptr %9, align 8, !tbaa !19
  %117 = icmp ne ptr %116, null
  br i1 %117, label %118, label %120

118:                                              ; preds = %115
  %119 = load ptr, ptr %9, align 8, !tbaa !19
  call void @free(ptr noundef %119) #8
  br label %120

120:                                              ; preds = %118, %115
  %121 = load i64, ptr %10, align 8, !tbaa !21
  store i64 %121, ptr %3, align 8
  store i32 1, ptr %15, align 4
  br label %122

122:                                              ; preds = %120, %81
  call void @llvm.lifetime.end.p0(i64 8, ptr %10) #8
  call void @llvm.lifetime.end.p0(i64 8, ptr %9) #8
  call void @llvm.lifetime.end.p0(i64 8, ptr %8) #8
  call void @llvm.lifetime.end.p0(i64 8, ptr %7) #8
  call void @llvm.lifetime.end.p0(i64 8, ptr %6) #8
  %123 = load i64, ptr %3, align 8
  ret i64 %123
}