; Function Attrs: nounwind uwtable
define internal fastcc i64 @H5LD_get_dset_type_size(i64 noundef %0, ptr noundef readonly captures(address_is_null) %1) unnamed_addr #0 {
  %3 = alloca i32, align 4
  %4 = alloca %union.anon.1, align 8
  %5 = alloca ptr, align 8
  %6 = tail call i64 @H5Dget_type(i64 noundef %0) #9
  %7 = icmp slt i64 %6, 0
  br i1 %7, label %H5LD_clean_vector.exit, label %8

8:                                                ; preds = %2
  %9 = tail call i64 @H5Tget_native_type(i64 noundef %6, i32 noundef 0) #9
  %10 = icmp slt i64 %9, 0
  br i1 %10, label %H5LD_clean_vector.exit, label %11

11:                                               ; preds = %8
  %12 = icmp eq ptr %1, null
  br i1 %12, label %13, label %15

13:                                               ; preds = %11
  %14 = tail call i64 @H5Tget_size(i64 noundef %9) #9
  br label %H5LD_clean_vector.exit

15:                                               ; preds = %11
  %16 = tail call i32 @H5Tget_class(i64 noundef %6) #9
  %.not = icmp eq i32 %16, 6
  br i1 %.not, label %17, label %H5LD_clean_vector.exit

17:                                               ; preds = %15
  %18 = tail call noalias ptr @strdup(ptr noundef nonnull %1) #9
  %19 = icmp eq ptr %18, null
  br i1 %19, label %H5LD_clean_vector.exit, label %20

20:                                               ; preds = %17
  %21 = tail call i64 @strlen(ptr noundef nonnull dereferenceable(1) %1) #10
  %22 = lshr i64 %21, 1
  %23 = add nuw i64 %22, 2
  %24 = tail call noalias ptr @calloc(i64 noundef %23, i64 noundef 8) #11
  %25 = icmp eq ptr %24, null
  br i1 %25, label %H5LD_clean_vector.exit, label %26

26:                                               ; preds = %20
  %27 = tail call i32 @H5LD_construct_vector(ptr noundef nonnull %18, ptr noundef nonnull %24, i64 noundef %9)
  %28 = icmp slt i32 %27, 0
  br i1 %28, label %H5LD_clean_vector.exit, label %.preheader

.preheader:                                       ; preds = %26
  %.not51 = icmp eq i32 %27, 0
  br i1 %.not51, label %._crit_edge, label %.lr.ph.preheader

.lr.ph.preheader:                                 ; preds = %.preheader
  %wide.trip.count = zext nneg i32 %27 to i64
  br label %.lr.ph

.lr.ph:                                           ; preds = %.lr.ph.preheader, %.lr.ph
  %indvars.iv = phi i64 [ 0, %.lr.ph.preheader ], [ %indvars.iv.next, %.lr.ph ]
  %.02849 = phi i64 [ 0, %.lr.ph.preheader ], [ %33, %.lr.ph ]
  %29 = getelementptr inbounds nuw ptr, ptr %24, i64 %indvars.iv
  %30 = load ptr, ptr %29, align 8, !tbaa !3
  %31 = getelementptr inbounds nuw i8, ptr %30, i64 8
  %32 = load i64, ptr %31, align 8, !tbaa !21
  %33 = add i64 %32, %.02849
  %indvars.iv.next = add nuw nsw i64 %indvars.iv, 1
  %exitcond.not = icmp eq i64 %indvars.iv.next, %wide.trip.count
  br i1 %exitcond.not, label %._crit_edge, label %.lr.ph, !llvm.loop !25

._crit_edge:                                      ; preds = %.lr.ph, %.preheader
  %.028.lcssa = phi i64 [ 0, %.preheader ], [ %33, %.lr.ph ]
  %34 = load ptr, ptr %24, align 8, !tbaa !3
  %.not22.i = icmp eq ptr %34, null
  br i1 %.not22.i, label %H5LD_clean_vector.exit, label %.lr.ph.i

.lr.ph.i:                                         ; preds = %._crit_edge, %48
  %35 = phi ptr [ %53, %48 ], [ %34, %._crit_edge ]
  %36 = phi ptr [ %52, %48 ], [ %24, %._crit_edge ]
  %.023.i = phi i32 [ %50, %48 ], [ 0, %._crit_edge ]
  %37 = getelementptr inbounds nuw i8, ptr %35, i64 24
  %38 = load ptr, ptr %37, align 8, !tbaa !8
  %.not21.i = icmp eq ptr %38, null
  br i1 %.not21.i, label %40, label %39

39:                                               ; preds = %.lr.ph.i
  tail call void @free(ptr noundef nonnull %38) #9
  store ptr null, ptr %37, align 8, !tbaa !8
  br label %40

40:                                               ; preds = %39, %.lr.ph.i
  %41 = getelementptr inbounds nuw i8, ptr %35, i64 16
  %42 = load i64, ptr %41, align 8, !tbaa !12
  %43 = icmp slt i64 %42, 0
  br i1 %43, label %48, label %44

44:                                               ; preds = %40
  %45 = tail call i32 @H5Tclose(i64 noundef %42) #9
  %46 = load ptr, ptr %36, align 8, !tbaa !3
  %47 = getelementptr inbounds nuw i8, ptr %46, i64 16
  store i64 -1, ptr %47, align 8, !tbaa !12
  br label %48

48:                                               ; preds = %44, %40
  %49 = phi ptr [ %46, %44 ], [ %35, %40 ]
  tail call void @free(ptr noundef nonnull %49) #9
  store ptr null, ptr %36, align 8, !tbaa !3
  %50 = add i32 %.023.i, 1
  %51 = zext i32 %50 to i64
  %52 = getelementptr inbounds nuw ptr, ptr %24, i64 %51
  %53 = load ptr, ptr %52, align 8, !tbaa !3
  %.not.i = icmp eq ptr %53, null
  br i1 %.not.i, label %H5LD_clean_vector.exit, label %.lr.ph.i, !llvm.loop !13

H5LD_clean_vector.exit:                           ; preds = %48, %._crit_edge, %15, %17, %20, %26, %13, %8, %2
  %.035 = phi i64 [ -1, %2 ], [ %9, %8 ], [ %9, %13 ], [ %9, %26 ], [ %9, %20 ], [ %9, %17 ], [ %9, %15 ], [ %9, %._crit_edge ], [ %9, %48 ]
  %.033 = phi ptr [ null, %2 ], [ null, %8 ], [ null, %13 ], [ %24, %26 ], [ null, %20 ], [ null, %17 ], [ null, %15 ], [ %24, %._crit_edge ], [ %24, %48 ]
  %.031 = phi ptr [ null, %2 ], [ null, %8 ], [ null, %13 ], [ %18, %26 ], [ %18, %20 ], [ null, %17 ], [ null, %15 ], [ %18, %._crit_edge ], [ %18, %48 ]
  %.030 = phi i64 [ 0, %2 ], [ 0, %8 ], [ %14, %13 ], [ 0, %26 ], [ 0, %20 ], [ 0, %17 ], [ 0, %15 ], [ %.028.lcssa, %._crit_edge ], [ %.028.lcssa, %48 ]
  call void @llvm.lifetime.start.p0(i64 4, ptr nonnull %3) #9
  call void @llvm.lifetime.start.p0(i64 8, ptr nonnull %4) #9
  call void @llvm.lifetime.start.p0(i64 8, ptr nonnull %5) #9
  %54 = call i32 @H5Eauto_is_v2(i64 noundef 0, ptr noundef nonnull %3) #9
  %55 = load i32, ptr %3, align 4, !tbaa !22
  %.not45 = icmp eq i32 %55, 0
  br i1 %.not45, label %59, label %56

56:                                               ; preds = %H5LD_clean_vector.exit
  %57 = call i32 @H5Eget_auto2(i64 noundef 0, ptr noundef nonnull %4, ptr noundef nonnull %5) #9
  %58 = call i32 @H5Eset_auto2(i64 noundef 0, ptr noundef null, ptr noundef null) #9
  br label %62

59:                                               ; preds = %H5LD_clean_vector.exit
  %60 = call i32 @H5Eget_auto1(ptr noundef nonnull %4, ptr noundef nonnull %5) #9
  %61 = call i32 @H5Eset_auto1(ptr noundef null, ptr noundef null) #9
  br label %62

62:                                               ; preds = %59, %56
  %63 = call i32 @H5Tclose(i64 noundef %.035) #9
  %64 = call i32 @H5Tclose(i64 noundef %6) #9
  %65 = load i32, ptr %3, align 4, !tbaa !22
  %.not46 = icmp eq i32 %65, 0
  %66 = load ptr, ptr %4, align 8, !tbaa !17
  %67 = load ptr, ptr %5, align 8, !tbaa !24
  br i1 %.not46, label %70, label %68

68:                                               ; preds = %62
  %69 = call i32 @H5Eset_auto2(i64 noundef 0, ptr noundef %66, ptr noundef %67) #9
  br label %72

70:                                               ; preds = %62
  %71 = call i32 @H5Eset_auto1(ptr noundef %66, ptr noundef %67) #9
  br label %72

72:                                               ; preds = %70, %68
  call void @llvm.lifetime.end.p0(i64 8, ptr nonnull %5) #9
  call void @llvm.lifetime.end.p0(i64 8, ptr nonnull %4) #9
  call void @llvm.lifetime.end.p0(i64 4, ptr nonnull %3) #9
  %.not47 = icmp eq ptr %.033, null
  br i1 %.not47, label %74, label %73

73:                                               ; preds = %72
  call void @free(ptr noundef nonnull %.033) #9
  br label %74

74:                                               ; preds = %73, %72
  %.not48 = icmp eq ptr %.031, null
  br i1 %.not48, label %76, label %75

75:                                               ; preds = %74
  call void @free(ptr noundef nonnull %.031) #9
  br label %76

76:                                               ; preds = %74, %75
  ret i64 %.030
}